target datalayout = "e-m:e-p270:32:32-p271:32:32-p272:64:64-i64:64-i128:128-f80:128-n8:16:32:64-S128"
target triple = "x86_64-pc-linux-gnu"

%struct.Vec_Int_t_ = type { i32, i32, ptr }
%struct.Vec_Wec_t_ = type { i32, i32, ptr }
%struct.Gia_RsbMan_t_ = type { ptr, ptr, ptr, i32, i32, ptr, ptr, ptr, ptr, ptr, [2 x ptr], [3 x ptr], ptr }

; Function Attrs: inlinehint nounwind uwtable
define internal i32 @Vec_IntSize(ptr noundef %0) #2 {
  %2 = alloca ptr, align 8
  store ptr %0, ptr %2, align 8, !tbaa !33
  %3 = load ptr, ptr %2, align 8, !tbaa !33
  %4 = getelementptr inbounds nuw %struct.Vec_Int_t_, ptr %3, i32 0, i32 1
  %5 = load i32, ptr %4, align 4, !tbaa !34
  ret i32 %5
}

; Function Attrs: inlinehint nounwind uwtable
define internal ptr @Vec_WecEntry(ptr noundef %0, i32 noundef %1) #2 {
  %3 = alloca ptr, align 8
  %4 = alloca i32, align 4
  store ptr %0, ptr %3, align 8, !tbaa !103
  store i32 %1, ptr %4, align 4, !tbaa !8
  %5 = load ptr, ptr %3, align 8, !tbaa !103
  %6 = getelementptr inbounds nuw %struct.Vec_Wec_t_, ptr %5, i32 0, i32 2
  %7 = load ptr, ptr %6, align 8, !tbaa !108
  %8 = load i32, ptr %4, align 4, !tbaa !8
  %9 = sext i32 %8 to i64
  %10 = getelementptr inbounds %struct.Vec_Int_t_, ptr %7, i64 %9
  ret ptr %10
}

; Function Attrs: inlinehint nounwind uwtable
define internal i32 @Vec_WecSize(ptr noundef %0) #2 {
  %2 = alloca ptr, align 8
  store ptr %0, ptr %2, align 8, !tbaa !103
  %3 = load ptr, ptr %2, align 8, !tbaa !103
  %4 = getelementptr inbounds nuw %struct.Vec_Wec_t_, ptr %3, i32 0, i32 1
  %5 = load i32, ptr %4, align 4, !tbaa !106
  ret i32 %5
}

; Function Attrs: nounwind uwtable
define i32 @Gia_RsbCost(ptr noundef %0) #0 {
  %2 = alloca ptr, align 8
  %3 = alloca [2 x ptr], align 16
  %4 = alloca i32, align 4
  %5 = alloca i32, align 4
  store ptr %0, ptr %2, align 8, !tbaa !264
  call void @llvm.lifetime.start.p0(i64 16, ptr %3) #13
  call void @llvm.lifetime.start.p0(i64 4, ptr %4) #13
  call void @llvm.lifetime.start.p0(i64 4, ptr %5) #13
  store i32 0, ptr %5, align 4, !tbaa !8
  store i32 0, ptr %4, align 4, !tbaa !8
  br label %6

6:                                                ; preds = %42, %1
  %7 = load i32, ptr %4, align 4, !tbaa !8
  %8 = load ptr, ptr %2, align 8, !tbaa !264
  %9 = getelementptr inbounds nuw %struct.Gia_RsbMan_t_, ptr %8, i32 0, i32 10
  %10 = getelementptr inbounds [2 x ptr], ptr %9, i64 0, i64 0
  %11 = load ptr, ptr %10, align 8, !tbaa !103
  %12 = call i32 @Vec_WecSize(ptr noundef %11)
  %13 = icmp slt i32 %7, %12
  br i1 %13, label %14, label %30

14:                                               ; preds = %6
  %15 = load ptr, ptr %2, align 8, !tbaa !264
  %16 = getelementptr inbounds nuw %struct.Gia_RsbMan_t_, ptr %15, i32 0, i32 10
  %17 = getelementptr inbounds [2 x ptr], ptr %16, i64 0, i64 0
  %18 = load ptr, ptr %17, align 8, !tbaa !103
  %19 = load i32, ptr %4, align 4, !tbaa !8
  %20 = call ptr @Vec_WecEntry(ptr noundef %18, i32 noundef %19)
  %21 = getelementptr inbounds [2 x ptr], ptr %3, i64 0, i64 0
  store ptr %20, ptr %21, align 16, !tbaa !33
  br i1 true, label %22, label %30

22:                                               ; preds = %14
  %23 = load ptr, ptr %2, align 8, !tbaa !264
  %24 = getelementptr inbounds nuw %struct.Gia_RsbMan_t_, ptr %23, i32 0, i32 10
  %25 = getelementptr inbounds [2 x ptr], ptr %24, i64 0, i64 1
  %26 = load ptr, ptr %25, align 8, !tbaa !103
  %27 = load i32, ptr %4, align 4, !tbaa !8
  %28 = call ptr @Vec_WecEntry(ptr noundef %26, i32 noundef %27)
  %29 = getelementptr inbounds [2 x ptr], ptr %3, i64 0, i64 1
  store ptr %28, ptr %29, align 8, !tbaa !33
  br label %30

30:                                               ; preds = %22, %14, %6
  %31 = phi i1 [ false, %14 ], [ false, %6 ], [ true, %22 ]
  br i1 %31, label %32, label %45

32:                                               ; preds = %30
  %33 = getelementptr inbounds [2 x ptr], ptr %3, i64 0, i64 0
  %34 = load ptr, ptr %33, align 16, !tbaa !33
  %35 = call i32 @Vec_IntSize(ptr noundef %34)
  %36 = getelementptr inbounds [2 x ptr], ptr %3, i64 0, i64 1
  %37 = load ptr, ptr %36, align 8, !tbaa !33
  %38 = call i32 @Vec_IntSize(ptr noundef %37)
  %39 = mul nsw i32 %35, %38
  %40 = load i32, ptr %5, align 4, !tbaa !8
  %41 = add nsw i32 %40, %39
  store i32 %41, ptr %5, align 4, !tbaa !8
  br label %42

42:                                               ; preds = %32
  %43 = load i32, ptr %4, align 4, !tbaa !8
  %44 = add nsw i32 %43, 1
  store i32 %44, ptr %4, align 4, !tbaa !8
  br label %6, !llvm.loop !281

45:                                               ; preds = %30
  %46 = load i32, ptr %5, align 4, !tbaa !8
  call void @llvm.lifetime.end.p0(i64 4, ptr %5) #13
  call void @llvm.lifetime.end.p0(i64 4, ptr %4) #13
  call void @llvm.lifetime.end.p0(i64 16, ptr %3) #13
  ret i32 %46
}