; Function Attrs: nofree norecurse nosync nounwind memory(read, inaccessiblemem: none) uwtable
define i32 @Gia_RsbCost(ptr noundef readonly captures(none) %0) local_unnamed_addr #14 {
  %2 = getelementptr inbounds nuw i8, ptr %0, i64 72
  %3 = load ptr, ptr %2, align 8, !tbaa !265
  %4 = getelementptr i8, ptr %3, i64 4
  %.val12 = load i32, ptr %4, align 4, !tbaa !95
  %5 = icmp sgt i32 %.val12, 0
  br i1 %5, label %.lr.ph, label %.critedge

.lr.ph:                                           ; preds = %1
  %6 = getelementptr i8, ptr %3, i64 8
  %.val11 = load ptr, ptr %6, align 8, !tbaa !94
  %7 = getelementptr inbounds nuw i8, ptr %0, i64 80
  %8 = load ptr, ptr %7, align 8, !tbaa !265
  %9 = getelementptr i8, ptr %8, i64 8
  %.val10 = load ptr, ptr %9, align 8, !tbaa !94
  %wide.trip.count = zext nneg i32 %.val12 to i64
  br label %10

10:                                               ; preds = %.lr.ph, %10
  %indvars.iv = phi i64 [ 0, %.lr.ph ], [ %indvars.iv.next, %10 ]
  %.014 = phi i32 [ 0, %.lr.ph ], [ %14, %10 ]
  %11 = getelementptr %struct.Vec_Int_t_, ptr %.val11, i64 %indvars.iv, i32 1
  %.val9 = load i32, ptr %11, align 4, !tbaa !28
  %12 = getelementptr %struct.Vec_Int_t_, ptr %.val10, i64 %indvars.iv, i32 1
  %.val = load i32, ptr %12, align 4, !tbaa !28
  %13 = mul nsw i32 %.val, %.val9
  %14 = add nsw i32 %13, %.014
  %indvars.iv.next = add nuw nsw i64 %indvars.iv, 1
  %exitcond.not = icmp eq i64 %indvars.iv.next, %wide.trip.count
  br i1 %exitcond.not, label %.critedge, label %10, !llvm.loop !269

.critedge:                                        ; preds = %10, %1
  %.0.lcssa = phi i32 [ 0, %1 ], [ %14, %10 ]
  ret i32 %.0.lcssa
}